; Function Attrs: mustprogress uwtable
define internal void @_ZL28recv_trailing_metadata_readyPvN4absl12lts_202308026StatusE(ptr nocapture noundef %arg, ptr nocapture noundef readonly %error) #3 personality ptr @__gxx_personality_v0 {
entry:
  %agg.tmp.i = alloca %"class.absl::lts_20230802::Status", align 8
  %agg.tmp = alloca %"class.absl::lts_20230802::Status", align 8
  %timer_state.i = getelementptr inbounds i8, ptr %arg, i64 32
  %0 = load ptr, ptr %timer_state.i, align 8
  %cmp.not.i = icmp eq ptr %0, null
  br i1 %cmp.not.i, label %_ZL22cancel_timer_if_neededP19grpc_deadline_state.exit, label %if.then.i

if.then.i:                                        ; preds = %entry
  %timer_.i.i = getelementptr inbounds i8, ptr %0, i64 8
  tail call void @_Z17grpc_timer_cancelP10grpc_timer(ptr noundef nonnull %timer_.i.i)
  store ptr null, ptr %timer_state.i, align 8
  br label %_ZL22cancel_timer_if_neededP19grpc_deadline_state.exit

_ZL22cancel_timer_if_neededP19grpc_deadline_state.exit: ; preds = %entry, %if.then.i
  %original_recv_trailing_metadata_ready = getelementptr inbounds i8, ptr %arg, i64 72
  %1 = load ptr, ptr %original_recv_trailing_metadata_ready, align 8
  %2 = load i64, ptr %error, align 8
  store i64 %2, ptr %agg.tmp, align 8
  %and.i.i.i = and i64 %2, 1
  %cmp.i.i.i = icmp eq i64 %and.i.i.i, 0
  br i1 %cmp.i.i.i, label %_ZN4absl12lts_202308026StatusC2ERKS1_.exit, label %_ZN4absl12lts_202308026StatusC2ERKS1_.exit.thread

_ZN4absl12lts_202308026StatusC2ERKS1_.exit:       ; preds = %_ZL22cancel_timer_if_neededP19grpc_deadline_state.exit
  call void @llvm.lifetime.start.p0(i64 8, ptr nonnull %agg.tmp.i)
  %cmp.i = icmp eq ptr %1, null
  br i1 %cmp.i, label %invoke.cont, label %if.end.i

_ZN4absl12lts_202308026StatusC2ERKS1_.exit.thread: ; preds = %_ZL22cancel_timer_if_neededP19grpc_deadline_state.exit
  %sub.i.i.i = add nsw i64 %2, -1
  %3 = inttoptr i64 %sub.i.i.i to ptr
  %4 = atomicrmw add ptr %3, i32 1 monotonic, align 4
  call void @llvm.lifetime.start.p0(i64 8, ptr nonnull %agg.tmp.i)
  %cmp.i6 = icmp eq ptr %1, null
  br i1 %cmp.i6, label %invoke.cont.thread, label %if.then.i.i.i

invoke.cont.thread:                               ; preds = %_ZN4absl12lts_202308026StatusC2ERKS1_.exit.thread
  call void @llvm.lifetime.end.p0(i64 8, ptr nonnull %agg.tmp.i)
  br label %if.then.i.i4

if.end.i:                                         ; preds = %_ZN4absl12lts_202308026StatusC2ERKS1_.exit
  %cb.i = getelementptr inbounds i8, ptr %1, i64 8
  %5 = load ptr, ptr %cb.i, align 8
  %cb_arg.i = getelementptr inbounds i8, ptr %1, i64 16
  %6 = load ptr, ptr %cb_arg.i, align 8
  store i64 %2, ptr %agg.tmp.i, align 8
  br label %_ZN4absl12lts_202308026StatusC2ERKS1_.exit.i

if.then.i.i.i:                                    ; preds = %_ZN4absl12lts_202308026StatusC2ERKS1_.exit.thread
  %cb.i7 = getelementptr inbounds i8, ptr %1, i64 8
  %7 = load ptr, ptr %cb.i7, align 8
  %cb_arg.i8 = getelementptr inbounds i8, ptr %1, i64 16
  %8 = load ptr, ptr %cb_arg.i8, align 8
  store i64 %2, ptr %agg.tmp.i, align 8
  %sub.i.i.i.i = add nsw i64 %2, -1
  %9 = inttoptr i64 %sub.i.i.i.i to ptr
  %10 = atomicrmw add ptr %9, i32 1 monotonic, align 4
  br label %_ZN4absl12lts_202308026StatusC2ERKS1_.exit.i

_ZN4absl12lts_202308026StatusC2ERKS1_.exit.i:     ; preds = %if.end.i, %if.then.i.i.i
  %11 = phi ptr [ %8, %if.then.i.i.i ], [ %6, %if.end.i ]
  %12 = phi ptr [ %7, %if.then.i.i.i ], [ %5, %if.end.i ]
  invoke void %12(ptr noundef %11, ptr noundef nonnull %agg.tmp.i)
          to label %invoke.cont.i unwind label %lpad.i

invoke.cont.i:                                    ; preds = %_ZN4absl12lts_202308026StatusC2ERKS1_.exit.i
  %13 = load i64, ptr %agg.tmp.i, align 8
  %and.i.i.i3.i = and i64 %13, 1
  %cmp.i.i.i4.i = icmp eq i64 %and.i.i.i3.i, 0
  br i1 %cmp.i.i.i4.i, label %invoke.cont, label %if.then.i.i5.i

if.then.i.i5.i:                                   ; preds = %invoke.cont.i
  invoke void @_ZN4absl12lts_202308026Status15UnrefNonInlinedEm(i64 noundef %13)
          to label %invoke.cont unwind label %terminate.lpad.i.i

terminate.lpad.i.i:                               ; preds = %if.then.i.i5.i
  %14 = landingpad { ptr, i32 }
          catch ptr null
  %15 = extractvalue { ptr, i32 } %14, 0
  call void @__clang_call_terminate(ptr %15) #22
  unreachable

lpad.i:                                           ; preds = %_ZN4absl12lts_202308026StatusC2ERKS1_.exit.i
  %16 = landingpad { ptr, i32 }
          cleanup
  call void @_ZN4absl12lts_202308026StatusD2Ev(ptr noundef nonnull align 8 dereferenceable(8) %agg.tmp.i) #23
  call void @_ZN4absl12lts_202308026StatusD2Ev(ptr noundef nonnull align 8 dereferenceable(8) %agg.tmp) #23
  resume { ptr, i32 } %16

invoke.cont:                                      ; preds = %if.then.i.i5.i, %invoke.cont.i, %_ZN4absl12lts_202308026StatusC2ERKS1_.exit
  call void @llvm.lifetime.end.p0(i64 8, ptr nonnull %agg.tmp.i)
  br i1 %cmp.i.i.i, label %_ZN4absl12lts_202308026StatusD2Ev.exit, label %if.then.i.i4

if.then.i.i4:                                     ; preds = %invoke.cont.thread, %invoke.cont
  invoke void @_ZN4absl12lts_202308026Status15UnrefNonInlinedEm(i64 noundef %2)
          to label %_ZN4absl12lts_202308026StatusD2Ev.exit unwind label %terminate.lpad.i

terminate.lpad.i:                                 ; preds = %if.then.i.i4
  %17 = landingpad { ptr, i32 }
          catch ptr null
  %18 = extractvalue { ptr, i32 } %17, 0
  call void @__clang_call_terminate(ptr %18) #22
  unreachable

_ZN4absl12lts_202308026StatusD2Ev.exit:           ; preds = %invoke.cont, %if.then.i.i4
  ret void
}